target datalayout = "e-m:e-p270:32:32-p271:32:32-p272:64:64-i64:64-i128:128-f80:128-n8:16:32:64-S128"
target triple = "x86_64-pc-linux-gnu"

%struct.lstopo_cairo_output = type { ptr, ptr, ptr }
%struct.lstopo_output = type { ptr, i32, i32, i32, ptr, i32, i32, i32, i32, i32, i32, i32, i32, ptr, ptr, i32, i32, i64, i64, i64, i32, [3 x [128 x i8]], i32, i32, ptr, i32, i32, i32, i32, i32, i32, %struct.hwloc_calc_level, i32, i32, i32, i64, [256 x i8], i32, i32, i32, i32, i32, float, [20 x i32], i32, i32, i32, [20 x i32], i32, [20 x i32], i32, [20 x i32], i32, i32, i32, i32, ptr, ptr, i32, [20 x i32], [20 x i32], [20 x i32], ptr, ptr, i64, ptr, i32, i32, i32 }
%struct.hwloc_calc_level = type { i32, i32, %union.hwloc_obj_attr_u, [32 x i8], i32, i32, i32, i32 }
%union.hwloc_obj_attr_u = type { %struct.hwloc_numanode_attr_s, [24 x i8] }
%struct.hwloc_numanode_attr_s = type { i64, i32, ptr }
%struct.lstopo_color = type { i32, i32, i32, i32, %union.lstopo_color_private_u, ptr }
%union.lstopo_color_private_u = type { %struct.lstopo_color_private_ascii_s }
%struct.lstopo_color_private_ascii_s = type { i32 }
%struct.hwloc_obj = type { i32, ptr, i32, ptr, i64, ptr, i32, i32, ptr, ptr, ptr, i32, ptr, ptr, i32, ptr, ptr, ptr, i32, i32, ptr, i32, ptr, i32, ptr, ptr, ptr, ptr, ptr, %struct.hwloc_infos_s, ptr, i64 }
%struct.hwloc_infos_s = type { ptr, i32, i32 }
%struct.lstopo_obj_userdata = type { %struct.hwloc_utils_userdata, i32, i32, %struct.lstopo_style, i32, i32, i32, i32, %struct.lstopo_children_position, %struct.lstopo_children_position, %struct.lstopo_children_position, %struct.lstopo_children_position, i32, i32, i32, [4 x %struct.lstopo_text_line], i32, i32 }
%struct.hwloc_utils_userdata = type { ptr, i64, ptr, ptr }
%struct.lstopo_style = type { ptr, ptr, ptr }
%struct.lstopo_children_position = type { i32, i32, i32, i32, i32, i32, ptr }
%struct.lstopo_text_line = type { [128 x i8], i32, i32 }

@.str.23 = private unnamed_addr constant [8 x i8] c"default\00", align 1

; Function Attrs: inlinehint nounwind uwtable
define internal i32 @lstopo_obj_cpukind_style(ptr noundef %0, ptr noundef %1) #9 {
  %3 = alloca i32, align 4
  %4 = alloca ptr, align 8
  %5 = alloca ptr, align 8
  %6 = alloca ptr, align 8
  store ptr %0, ptr %4, align 8, !tbaa !4
  store ptr %1, ptr %5, align 8, !tbaa !112
  %7 = load ptr, ptr %4, align 8, !tbaa !4
  %8 = getelementptr inbounds nuw %struct.lstopo_output, ptr %7, i32 0, i32 55
  %9 = load i32, ptr %8, align 8, !tbaa !93
  %10 = icmp ne i32 %9, 0
  br i1 %10, label %11, label %27

11:                                               ; preds = %2
  %12 = load ptr, ptr %5, align 8, !tbaa !112
  %13 = icmp ne ptr %12, null
  br i1 %13, label %14, label %26

14:                                               ; preds = %11
  %15 = load ptr, ptr %5, align 8, !tbaa !112
  %16 = getelementptr inbounds nuw %struct.hwloc_obj, ptr %15, i32 0, i32 30
  %17 = load ptr, ptr %16, align 8, !tbaa !124
  %18 = icmp ne ptr %17, null
  br i1 %18, label %19, label %26

19:                                               ; preds = %14
  call void @llvm.lifetime.start.p0(i64 8, ptr %6) #10
  %20 = load ptr, ptr %5, align 8, !tbaa !112
  %21 = getelementptr inbounds nuw %struct.hwloc_obj, ptr %20, i32 0, i32 30
  %22 = load ptr, ptr %21, align 8, !tbaa !124
  store ptr %22, ptr %6, align 8, !tbaa !130
  %23 = load ptr, ptr %6, align 8, !tbaa !130
  %24 = getelementptr inbounds nuw %struct.lstopo_obj_userdata, ptr %23, i32 0, i32 5
  %25 = load i32, ptr %24, align 4, !tbaa !132
  store i32 %25, ptr %3, align 4
  call void @llvm.lifetime.end.p0(i64 8, ptr %6) #10
  br label %28

26:                                               ; preds = %14, %11
  br label %27

27:                                               ; preds = %26, %2
  store i32 0, ptr %3, align 4
  br label %28

28:                                               ; preds = %27, %19
  %29 = load i32, ptr %3, align 4
  ret i32 %29
}

; Function Attrs: nounwind uwtable
define internal void @topo_cairo_text(ptr noundef %0, ptr noundef %1, i32 noundef %2, i32 noundef %3, i32 noundef %4, i32 noundef %5, ptr noundef %6, ptr noundef %7, i32 noundef %8) #0 {
  %10 = alloca ptr, align 8
  %11 = alloca ptr, align 8
  %12 = alloca i32, align 4
  %13 = alloca i32, align 4
  %14 = alloca i32, align 4
  %15 = alloca i32, align 4
  %16 = alloca ptr, align 8
  %17 = alloca ptr, align 8
  %18 = alloca i32, align 4
  %19 = alloca ptr, align 8
  %20 = alloca i32, align 4
  %21 = alloca ptr, align 8
  %22 = alloca i32, align 4
  %23 = alloca i32, align 4
  %24 = alloca i32, align 4
  store ptr %0, ptr %10, align 8, !tbaa !4
  store ptr %1, ptr %11, align 8, !tbaa !110
  store i32 %2, ptr %12, align 4, !tbaa !13
  store i32 %3, ptr %13, align 4, !tbaa !13
  store i32 %4, ptr %14, align 4, !tbaa !13
  store i32 %5, ptr %15, align 4, !tbaa !13
  store ptr %6, ptr %16, align 8, !tbaa !9
  store ptr %7, ptr %17, align 8, !tbaa !112
  store i32 %8, ptr %18, align 4, !tbaa !13
  call void @llvm.lifetime.start.p0(i64 8, ptr %19) #10
  %25 = load ptr, ptr %10, align 8, !tbaa !4
  %26 = getelementptr inbounds nuw %struct.lstopo_output, ptr %25, i32 0, i32 63
  %27 = load ptr, ptr %26, align 8, !tbaa !21
  store ptr %27, ptr %19, align 8, !tbaa !15
  call void @llvm.lifetime.start.p0(i64 4, ptr %20) #10
  %28 = load ptr, ptr %10, align 8, !tbaa !4
  %29 = load ptr, ptr %17, align 8, !tbaa !112
  %30 = call i32 @lstopo_obj_cpukind_style(ptr noundef %28, ptr noundef %29)
  store i32 %30, ptr %20, align 4, !tbaa !13
  call void @llvm.lifetime.start.p0(i64 8, ptr %21) #10
  %31 = load ptr, ptr %19, align 8, !tbaa !15
  %32 = getelementptr inbounds nuw %struct.lstopo_cairo_output, ptr %31, i32 0, i32 2
  %33 = load ptr, ptr %32, align 8, !tbaa !105
  store ptr %33, ptr %21, align 8, !tbaa !104
  call void @llvm.lifetime.start.p0(i64 4, ptr %22) #10
  %34 = load ptr, ptr %11, align 8, !tbaa !110
  %35 = getelementptr inbounds nuw %struct.lstopo_color, ptr %34, i32 0, i32 0
  %36 = load i32, ptr %35, align 8, !tbaa !114
  store i32 %36, ptr %22, align 4, !tbaa !13
  call void @llvm.lifetime.start.p0(i64 4, ptr %23) #10
  %37 = load ptr, ptr %11, align 8, !tbaa !110
  %38 = getelementptr inbounds nuw %struct.lstopo_color, ptr %37, i32 0, i32 1
  %39 = load i32, ptr %38, align 4, !tbaa !116
  store i32 %39, ptr %23, align 4, !tbaa !13
  call void @llvm.lifetime.start.p0(i64 4, ptr %24) #10
  %40 = load ptr, ptr %11, align 8, !tbaa !110
  %41 = getelementptr inbounds nuw %struct.lstopo_color, ptr %40, i32 0, i32 2
  %42 = load i32, ptr %41, align 8, !tbaa !117
  store i32 %42, ptr %24, align 4, !tbaa !13
  %43 = load ptr, ptr %21, align 8, !tbaa !104
  %44 = load i32, ptr %14, align 4, !tbaa !13
  %45 = uitofp i32 %44 to double
  %46 = load i32, ptr %15, align 4, !tbaa !13
  %47 = load i32, ptr %12, align 4, !tbaa !13
  %48 = add i32 %46, %47
  %49 = uitofp i32 %48 to double
  call void @cairo_move_to(ptr noundef %43, double noundef %45, double noundef %49)
  %50 = load ptr, ptr %21, align 8, !tbaa !104
  %51 = load i32, ptr %22, align 4, !tbaa !13
  %52 = sitofp i32 %51 to float
  %53 = fdiv float %52, 2.550000e+02
  %54 = fpext float %53 to double
  %55 = load i32, ptr %23, align 4, !tbaa !13
  %56 = sitofp i32 %55 to float
  %57 = fdiv float %56, 2.550000e+02
  %58 = fpext float %57 to double
  %59 = load i32, ptr %24, align 4, !tbaa !13
  %60 = sitofp i32 %59 to float
  %61 = fdiv float %60, 2.550000e+02
  %62 = fpext float %61 to double
  call void @cairo_set_source_rgb(ptr noundef %50, double noundef %54, double noundef %58, double noundef %62)
  %63 = load i32, ptr %20, align 4, !tbaa !13
  %64 = urem i32 %63, 2
  %65 = icmp ne i32 %64, 0
  br i1 %65, label %66, label %68

66:                                               ; preds = %9
  %67 = load ptr, ptr %21, align 8, !tbaa !104
  call void @cairo_select_font_face(ptr noundef %67, ptr noundef @.str.23, i32 noundef 0, i32 noundef 1)
  br label %68

68:                                               ; preds = %66, %9
  %69 = load ptr, ptr %21, align 8, !tbaa !104
  %70 = load ptr, ptr %16, align 8, !tbaa !9
  call void @cairo_show_text(ptr noundef %69, ptr noundef %70)
  %71 = load i32, ptr %20, align 4, !tbaa !13
  %72 = urem i32 %71, 2
  %73 = icmp ne i32 %72, 0
  br i1 %73, label %74, label %76

74:                                               ; preds = %68
  %75 = load ptr, ptr %21, align 8, !tbaa !104
  call void @cairo_select_font_face(ptr noundef %75, ptr noundef @.str.23, i32 noundef 0, i32 noundef 0)
  br label %76

76:                                               ; preds = %74, %68
  call void @llvm.lifetime.end.p0(i64 4, ptr %24) #10
  call void @llvm.lifetime.end.p0(i64 4, ptr %23) #10
  call void @llvm.lifetime.end.p0(i64 4, ptr %22) #10
  call void @llvm.lifetime.end.p0(i64 8, ptr %21) #10
  call void @llvm.lifetime.end.p0(i64 4, ptr %20) #10
  call void @llvm.lifetime.end.p0(i64 8, ptr %19) #10
  ret void
}