; Function Attrs: nounwind uwtable
define internal void @topo_cairo_text(ptr noundef readonly captures(none) %0, ptr noundef readonly captures(none) %1, i32 noundef %2, i32 %3, i32 noundef %4, i32 noundef %5, ptr noundef %6, ptr noundef readonly captures(address_is_null) %7, i32 %8) #0 {
  %10 = getelementptr inbounds nuw i8, ptr %0, i64 1584
  %11 = load ptr, ptr %10, align 8, !tbaa !12
  %12 = getelementptr i8, ptr %0, i64 1304
  %.val = load i32, ptr %12, align 8, !tbaa !91
  %13 = icmp ne i32 %.val, 0
  %14 = icmp ne ptr %7, null
  %or.cond.i = and i1 %14, %13
  br i1 %or.cond.i, label %15, label %lstopo_obj_cpukind_style.exit

15:                                               ; preds = %9
  %16 = getelementptr inbounds nuw i8, ptr %7, i64 232
  %17 = load ptr, ptr %16, align 8, !tbaa !99
  %.not.i = icmp eq ptr %17, null
  br i1 %.not.i, label %lstopo_obj_cpukind_style.exit, label %18

18:                                               ; preds = %15
  %19 = getelementptr inbounds nuw i8, ptr %17, i64 68
  %20 = load i32, ptr %19, align 4, !tbaa !106
  %21 = and i32 %20, 1
  %22 = icmp eq i32 %21, 0
  br label %lstopo_obj_cpukind_style.exit

lstopo_obj_cpukind_style.exit:                    ; preds = %9, %15, %18
  %.0.i = phi i1 [ %22, %18 ], [ true, %15 ], [ true, %9 ]
  %23 = getelementptr inbounds nuw i8, ptr %11, i64 16
  %24 = load ptr, ptr %23, align 8, !tbaa !55
  %25 = load i32, ptr %1, align 8, !tbaa !113
  %26 = getelementptr inbounds nuw i8, ptr %1, i64 4
  %27 = load i32, ptr %26, align 4, !tbaa !115
  %28 = getelementptr inbounds nuw i8, ptr %1, i64 8
  %29 = load i32, ptr %28, align 8, !tbaa !116
  %30 = uitofp i32 %4 to double
  %31 = add i32 %5, %2
  %32 = uitofp i32 %31 to double
  tail call void @cairo_move_to(ptr noundef %24, double noundef %30, double noundef %32) #13
  %33 = sitofp i32 %25 to float
  %34 = fdiv float %33, 2.550000e+02
  %35 = fpext float %34 to double
  %36 = sitofp i32 %27 to float
  %37 = fdiv float %36, 2.550000e+02
  %38 = fpext float %37 to double
  %39 = sitofp i32 %29 to float
  %40 = fdiv float %39, 2.550000e+02
  %41 = fpext float %40 to double
  tail call void @cairo_set_source_rgb(ptr noundef %24, double noundef %35, double noundef %38, double noundef %41) #13
  br i1 %.0.i, label %.critedge, label %42

42:                                               ; preds = %lstopo_obj_cpukind_style.exit
  tail call void @cairo_select_font_face(ptr noundef %24, ptr noundef nonnull @.str.23, i32 noundef 0, i32 noundef 1) #13
  tail call void @cairo_show_text(ptr noundef %24, ptr noundef %6) #13
  tail call void @cairo_select_font_face(ptr noundef %24, ptr noundef nonnull @.str.23, i32 noundef 0, i32 noundef 0) #13
  br label %43

.critedge:                                        ; preds = %lstopo_obj_cpukind_style.exit
  tail call void @cairo_show_text(ptr noundef %24, ptr noundef %6) #13
  br label %43

43:                                               ; preds = %.critedge, %42
  ret void
}